; Function Attrs: mustprogress nounwind uwtable
define hidden noundef zeroext i1 @_ZN4llvh2cl6parserIyE5parseERNS0_6OptionENS_9StringRefES5_Ry(ptr nocapture noundef nonnull readnone align 8 dereferenceable(8) %this, ptr nocapture noundef nonnull readonly align 8 dereferenceable(145) %O, ptr nocapture readnone %ArgName.coerce0, i64 %ArgName.coerce1, ptr %Arg.coerce0, i64 %Arg.coerce1, ptr nocapture noundef nonnull writeonly align 8 dereferenceable(8) %Value) local_unnamed_addr #0 align 2 {
entry:
  %ULLVal.i = alloca i64, align 8
  %Arg = alloca %"class.llvh::StringRef", align 8
  %ref.tmp = alloca %"class.llvh::Twine", align 8
  %ref.tmp2 = alloca %"class.llvh::Twine", align 8
  store ptr %Arg.coerce0, ptr %Arg, align 8
  %0 = getelementptr inbounds i8, ptr %Arg, i64 8
  store i64 %Arg.coerce1, ptr %0, align 8
  call void @llvm.lifetime.start.p0(i64 8, ptr nonnull %ULLVal.i)
  %call.i = call noundef zeroext i1 @_ZN4llvh20getAsUnsignedIntegerENS_9StringRefEjRy(ptr %Arg.coerce0, i64 %Arg.coerce1, i32 noundef 0, ptr noundef nonnull align 8 dereferenceable(8) %ULLVal.i) #27
  br i1 %call.i, label %_ZN4llvhplERKNS_5TwineES2_.exit, label %_ZNK4llvh9StringRef12getAsIntegerIyEENSt9enable_ifIXntsr3std14numeric_limitsIT_EE9is_signedEbE4typeEjRS3_.exit

_ZNK4llvh9StringRef12getAsIntegerIyEENSt9enable_ifIXntsr3std14numeric_limitsIT_EE9is_signedEbE4typeEjRS3_.exit: ; preds = %entry
  %1 = load i64, ptr %ULLVal.i, align 8
  store i64 %1, ptr %Value, align 8
  call void @llvm.lifetime.end.p0(i64 8, ptr nonnull %ULLVal.i)
  br label %return

_ZN4llvhplERKNS_5TwineES2_.exit:                  ; preds = %entry
  call void @llvm.lifetime.end.p0(i64 8, ptr nonnull %ULLVal.i)
  %LHSKind.i.i = getelementptr inbounds i8, ptr %ref.tmp2, i64 16
  store i8 3, ptr %LHSKind.i.i, align 8, !alias.scope !142
  %RHSKind.i.i = getelementptr inbounds i8, ptr %ref.tmp2, i64 17
  store i8 5, ptr %RHSKind.i.i, align 1, !alias.scope !142
  store ptr @.str.20, ptr %ref.tmp2, align 8, !alias.scope !142
  %RHS5.i.i = getelementptr inbounds i8, ptr %ref.tmp2, i64 8
  store ptr %Arg, ptr %RHS5.i.i, align 8, !alias.scope !142
  store ptr %ref.tmp2, ptr %ref.tmp, align 8, !alias.scope !145
  %RHS4.i.i.i = getelementptr inbounds i8, ptr %ref.tmp, i64 8
  store ptr @.str.23, ptr %RHS4.i.i.i, align 8, !alias.scope !145
  %LHSKind5.i.i.i = getelementptr inbounds i8, ptr %ref.tmp, i64 16
  store i8 2, ptr %LHSKind5.i.i.i, align 8, !alias.scope !145
  %RHSKind6.i.i.i = getelementptr inbounds i8, ptr %ref.tmp, i64 17
  store i8 3, ptr %RHSKind6.i.i.i, align 1, !alias.scope !145
  %call4 = call noundef nonnull align 8 dereferenceable(36) ptr @_ZN4llvh4errsEv() #27
  %call5 = call noundef zeroext i1 @_ZN4llvh2cl6Option5errorERKNS_5TwineENS_9StringRefERNS_11raw_ostreamE(ptr noundef nonnull align 8 dereferenceable(145) %O, ptr noundef nonnull align 8 dereferenceable(18) %ref.tmp, ptr null, i64 0, ptr noundef nonnull align 8 dereferenceable(36) %call4)
  br label %return

return:                                           ; preds = %_ZNK4llvh9StringRef12getAsIntegerIyEENSt9enable_ifIXntsr3std14numeric_limitsIT_EE9is_signedEbE4typeEjRS3_.exit, %_ZN4llvhplERKNS_5TwineES2_.exit
  ret i1 %call.i
}